; ModuleID = '7/368.c'
source_filename = "7/368.c"
target datalayout = "e-m:e-p270:32:32-p271:32:32-p272:64:64-i64:64-f80:128-n8:16:32:64-S128"
target triple = "x86_64-pc-linux-gnu"

@.str = private unnamed_addr constant [3 x i8] c"%c\00", align 1

; Function Attrs: noinline nounwind uwtable
define dso_local i32 @main() #0 {
  %1 = alloca i32, align 4
  %2 = alloca [300 x i8], align 16
  %3 = alloca [100 x i8], align 16
  %4 = alloca [100 x i8], align 16
  %5 = alloca i32, align 4
  %6 = alloca i32, align 4
  %7 = alloca i32, align 4
  %8 = alloca i32, align 4
  %9 = alloca i32, align 4
  store i32 0, i32* %1, align 4
  %10 = getelementptr inbounds [300 x i8], [300 x i8]* %2, i64 0, i64 0
  %11 = call i32 (i8*, ...) bitcast (i32 (...)* @gets to i32 (i8*, ...)*)(i8* %10)
  %12 = getelementptr inbounds [100 x i8], [100 x i8]* %3, i64 0, i64 0
  %13 = call i32 (i8*, ...) bitcast (i32 (...)* @gets to i32 (i8*, ...)*)(i8* %12)
  %14 = getelementptr inbounds [100 x i8], [100 x i8]* %4, i64 0, i64 0
  %15 = call i32 (i8*, ...) bitcast (i32 (...)* @gets to i32 (i8*, ...)*)(i8* %14)
  %16 = getelementptr inbounds [300 x i8], [300 x i8]* %2, i64 0, i64 0
  %17 = call i64 @strlen(i8* %16) #3
  %18 = trunc i64 %17 to i32
  store i32 %18, i32* %5, align 4
  %19 = getelementptr inbounds [100 x i8], [100 x i8]* %3, i64 0, i64 0
  %20 = call i64 @strlen(i8* %19) #3
  %21 = trunc i64 %20 to i32
  store i32 %21, i32* %6, align 4
  %22 = getelementptr inbounds [100 x i8], [100 x i8]* %4, i64 0, i64 0
  %23 = call i64 @strlen(i8* %22) #3
  %24 = trunc i64 %23 to i32
  store i32 %24, i32* %7, align 4
  store i32 -1, i32* %9, align 4
  store i32 0, i32* %8, align 4
  br label %25

25:                                               ; preds = %85, %0
  %26 = load i32, i32* %8, align 4
  %27 = load i32, i32* %5, align 4
  %28 = icmp slt i32 %26, %27
  br i1 %28, label %29, label %88

29:                                               ; preds = %25
  %30 = load i32, i32* %8, align 4
  %31 = sext i32 %30 to i64
  %32 = getelementptr inbounds [300 x i8], [300 x i8]* %2, i64 0, i64 %31
  %33 = load i8, i8* %32, align 1
  %34 = sext i8 %33 to i32
  %35 = getelementptr inbounds [100 x i8], [100 x i8]* %3, i64 0, i64 0
  %36 = load i8, i8* %35, align 16
  %37 = sext i8 %36 to i32
  %38 = icmp eq i32 %34, %37
  br i1 %38, label %39, label %84

39:                                               ; preds = %29
  %40 = load i32, i32* %8, align 4
  %41 = add nsw i32 %40, 1
  %42 = sext i32 %41 to i64
  %43 = getelementptr inbounds [300 x i8], [300 x i8]* %2, i64 0, i64 %42
  %44 = load i8, i8* %43, align 1
  %45 = sext i8 %44 to i32
  %46 = getelementptr inbounds [100 x i8], [100 x i8]* %3, i64 0, i64 1
  %47 = load i8, i8* %46, align 1
  %48 = sext i8 %47 to i32
  %49 = icmp eq i32 %45, %48
  br i1 %49, label %50, label %84

50:                                               ; preds = %39
  %51 = load i32, i32* %8, align 4
  %52 = load i32, i32* %6, align 4
  %53 = add nsw i32 %51, %52
  %54 = sub nsw i32 %53, 1
  %55 = sext i32 %54 to i64
  %56 = getelementptr inbounds [300 x i8], [300 x i8]* %2, i64 0, i64 %55
  %57 = load i8, i8* %56, align 1
  %58 = sext i8 %57 to i32
  %59 = load i32, i32* %6, align 4
  %60 = sub nsw i32 %59, 1
  %61 = sext i32 %60 to i64
  %62 = getelementptr inbounds [100 x i8], [100 x i8]* %3, i64 0, i64 %61
  %63 = load i8, i8* %62, align 1
  %64 = sext i8 %63 to i32
  %65 = icmp eq i32 %58, %64
  br i1 %65, label %66, label %84

66:                                               ; preds = %50
  %67 = load i32, i32* %8, align 4
  %68 = load i32, i32* %6, align 4
  %69 = add nsw i32 %67, %68
  %70 = sub nsw i32 %69, 2
  %71 = sext i32 %70 to i64
  %72 = getelementptr inbounds [300 x i8], [300 x i8]* %2, i64 0, i64 %71
  %73 = load i8, i8* %72, align 1
  %74 = sext i8 %73 to i32
  %75 = load i32, i32* %6, align 4
  %76 = sub nsw i32 %75, 2
  %77 = sext i32 %76 to i64
  %78 = getelementptr inbounds [100 x i8], [100 x i8]* %3, i64 0, i64 %77
  %79 = load i8, i8* %78, align 1
  %80 = sext i8 %79 to i32
  %81 = icmp eq i32 %74, %80
  br i1 %81, label %82, label %84

82:                                               ; preds = %66
  %83 = load i32, i32* %8, align 4
  store i32 %83, i32* %9, align 4
  br label %88

84:                                               ; preds = %66, %50, %39, %29
  br label %85

85:                                               ; preds = %84
  %86 = load i32, i32* %8, align 4
  %87 = add nsw i32 %86, 1
  store i32 %87, i32* %8, align 4
  br label %25

88:                                               ; preds = %82, %25
  %89 = load i32, i32* %9, align 4
  %90 = icmp ne i32 %89, -1
  br i1 %90, label %91, label %140

91:                                               ; preds = %88
  store i32 0, i32* %8, align 4
  br label %92

92:                                               ; preds = %103, %91
  %93 = load i32, i32* %8, align 4
  %94 = load i32, i32* %9, align 4
  %95 = icmp slt i32 %93, %94
  br i1 %95, label %96, label %106

96:                                               ; preds = %92
  %97 = load i32, i32* %8, align 4
  %98 = sext i32 %97 to i64
  %99 = getelementptr inbounds [300 x i8], [300 x i8]* %2, i64 0, i64 %98
  %100 = load i8, i8* %99, align 1
  %101 = sext i8 %100 to i32
  %102 = call i32 (i8*, ...) @printf(i8* getelementptr inbounds ([3 x i8], [3 x i8]* @.str, i64 0, i64 0), i32 %101)
  br label %103

103:                                              ; preds = %96
  %104 = load i32, i32* %8, align 4
  %105 = add nsw i32 %104, 1
  store i32 %105, i32* %8, align 4
  br label %92

106:                                              ; preds = %92
  store i32 0, i32* %8, align 4
  br label %107

107:                                              ; preds = %118, %106
  %108 = load i32, i32* %8, align 4
  %109 = load i32, i32* %7, align 4
  %110 = icmp slt i32 %108, %109
  br i1 %110, label %111, label %121

111:                                              ; preds = %107
  %112 = load i32, i32* %8, align 4
  %113 = sext i32 %112 to i64
  %114 = getelementptr inbounds [100 x i8], [100 x i8]* %4, i64 0, i64 %113
  %115 = load i8, i8* %114, align 1
  %116 = sext i8 %115 to i32
  %117 = call i32 (i8*, ...) @printf(i8* getelementptr inbounds ([3 x i8], [3 x i8]* @.str, i64 0, i64 0), i32 %116)
  br label %118

118:                                              ; preds = %111
  %119 = load i32, i32* %8, align 4
  %120 = add nsw i32 %119, 1
  store i32 %120, i32* %8, align 4
  br label %107

121:                                              ; preds = %107
  %122 = load i32, i32* %9, align 4
  %123 = load i32, i32* %6, align 4
  %124 = add nsw i32 %122, %123
  store i32 %124, i32* %8, align 4
  br label %125

125:                                              ; preds = %136, %121
  %126 = load i32, i32* %8, align 4
  %127 = load i32, i32* %5, align 4
  %128 = icmp slt i32 %126, %127
  br i1 %128, label %129, label %139

129:                                              ; preds = %125
  %130 = load i32, i32* %8, align 4
  %131 = sext i32 %130 to i64
  %132 = getelementptr inbounds [300 x i8], [300 x i8]* %2, i64 0, i64 %131
  %133 = load i8, i8* %132, align 1
  %134 = sext i8 %133 to i32
  %135 = call i32 (i8*, ...) @printf(i8* getelementptr inbounds ([3 x i8], [3 x i8]* @.str, i64 0, i64 0), i32 %134)
  br label %136

136:                                              ; preds = %129
  %137 = load i32, i32* %8, align 4
  %138 = add nsw i32 %137, 1
  store i32 %138, i32* %8, align 4
  br label %125

139:                                              ; preds = %125
  br label %156

140:                                              ; preds = %88
  store i32 0, i32* %8, align 4
  br label %141

141:                                              ; preds = %152, %140
  %142 = load i32, i32* %8, align 4
  %143 = load i32, i32* %5, align 4
  %144 = icmp slt i32 %142, %143
  br i1 %144, label %145, label %155

145:                                              ; preds = %141
  %146 = load i32, i32* %8, align 4
  %147 = sext i32 %146 to i64
  %148 = getelementptr inbounds [300 x i8], [300 x i8]* %2, i64 0, i64 %147
  %149 = load i8, i8* %148, align 1
  %150 = sext i8 %149 to i32
  %151 = call i32 (i8*, ...) @printf(i8* getelementptr inbounds ([3 x i8], [3 x i8]* @.str, i64 0, i64 0), i32 %150)
  br label %152

152:                                              ; preds = %145
  %153 = load i32, i32* %8, align 4
  %154 = add nsw i32 %153, 1
  store i32 %154, i32* %8, align 4
  br label %141

155:                                              ; preds = %141
  br label %156

156:                                              ; preds = %155, %139
  ret i32 0
}

declare dso_local i32 @gets(...) #1

; Function Attrs: nounwind readonly
declare dso_local i64 @strlen(i8*) #2

declare dso_local i32 @printf(i8*, ...) #1


!llvm.module.flags = !{!0}
!llvm.ident = !{!1}

!0 = !{i32 1, !"wchar_size", i32 4}
!1 = !{!"clang version 10.0.0-4ubuntu1 "}
